target datalayout = "e-m:e-p270:32:32-p271:32:32-p272:64:64-i64:64-i128:128-f80:128-n8:16:32:64-S128"
target triple = "x86_64-pc-linux-gnu"

%struct.sp_int = type { i16, i16, [129 x i64] }

; Function Attrs: nounwind uwtable
define internal void @sp_clamp_ct(ptr noundef %0) #0 {
  %2 = alloca ptr, align 8
  %3 = alloca i32, align 4
  %4 = alloca i16, align 2
  %5 = alloca i16, align 2
  store ptr %0, ptr %2, align 8, !tbaa !3
  call void @llvm.lifetime.start.p0(i64 4, ptr %3) #8
  call void @llvm.lifetime.start.p0(i64 2, ptr %4) #8
  %6 = load ptr, ptr %2, align 8, !tbaa !3
  %7 = getelementptr inbounds nuw %struct.sp_int, ptr %6, i32 0, i32 0
  %8 = load i16, ptr %7, align 8, !tbaa !15
  store i16 %8, ptr %4, align 2, !tbaa !32
  call void @llvm.lifetime.start.p0(i64 2, ptr %5) #8
  store i16 -1, ptr %5, align 2, !tbaa !32
  %9 = load ptr, ptr %2, align 8, !tbaa !3
  %10 = getelementptr inbounds nuw %struct.sp_int, ptr %9, i32 0, i32 0
  %11 = load i16, ptr %10, align 8, !tbaa !15
  %12 = zext i16 %11 to i32
  %13 = sub nsw i32 %12, 1
  store i32 %13, ptr %3, align 4, !tbaa !8
  br label %14

14:                                               ; preds = %48, %1
  %15 = load i32, ptr %3, align 4, !tbaa !8
  %16 = icmp sge i32 %15, 0
  br i1 %16, label %17, label %51

17:                                               ; preds = %14
  %18 = load i16, ptr %4, align 2, !tbaa !32
  %19 = zext i16 %18 to i32
  %20 = load ptr, ptr %2, align 8, !tbaa !3
  %21 = getelementptr inbounds nuw %struct.sp_int, ptr %20, i32 0, i32 2
  %22 = load i32, ptr %3, align 4, !tbaa !8
  %23 = sext i32 %22 to i64
  %24 = getelementptr inbounds [129 x i64], ptr %21, i64 0, i64 %23
  %25 = load i64, ptr %24, align 8, !tbaa !16
  %26 = icmp eq i64 %25, 0
  %27 = zext i1 %26 to i32
  %28 = load i16, ptr %5, align 2, !tbaa !32
  %29 = zext i16 %28 to i32
  %30 = and i32 %27, %29
  %31 = sub nsw i32 %19, %30
  %32 = trunc i32 %31 to i16
  store i16 %32, ptr %4, align 2, !tbaa !32
  %33 = load ptr, ptr %2, align 8, !tbaa !3
  %34 = getelementptr inbounds nuw %struct.sp_int, ptr %33, i32 0, i32 2
  %35 = load i32, ptr %3, align 4, !tbaa !8
  %36 = sext i32 %35 to i64
  %37 = getelementptr inbounds [129 x i64], ptr %34, i64 0, i64 %36
  %38 = load i64, ptr %37, align 8, !tbaa !16
  %39 = icmp eq i64 %38, 0
  %40 = zext i1 %39 to i32
  %41 = sub nsw i32 0, %40
  %42 = trunc i32 %41 to i16
  %43 = zext i16 %42 to i32
  %44 = load i16, ptr %5, align 2, !tbaa !32
  %45 = zext i16 %44 to i32
  %46 = and i32 %45, %43
  %47 = trunc i32 %46 to i16
  store i16 %47, ptr %5, align 2, !tbaa !32
  br label %48

48:                                               ; preds = %17
  %49 = load i32, ptr %3, align 4, !tbaa !8
  %50 = add nsw i32 %49, -1
  store i32 %50, ptr %3, align 4, !tbaa !8
  br label %14, !llvm.loop !75

51:                                               ; preds = %14
  %52 = load i16, ptr %4, align 2, !tbaa !32
  %53 = load ptr, ptr %2, align 8, !tbaa !3
  %54 = getelementptr inbounds nuw %struct.sp_int, ptr %53, i32 0, i32 0
  store i16 %52, ptr %54, align 8, !tbaa !15
  call void @llvm.lifetime.end.p0(i64 2, ptr %5) #8
  call void @llvm.lifetime.end.p0(i64 2, ptr %4) #8
  call void @llvm.lifetime.end.p0(i64 4, ptr %3) #8
  ret void
}

; Function Attrs: nounwind uwtable
define internal void @_sp_submod_ct(ptr noundef %0, ptr noundef %1, ptr noundef %2, i32 noundef %3, ptr noundef %4) #0 {
  %6 = alloca ptr, align 8
  %7 = alloca ptr, align 8
  %8 = alloca ptr, align 8
  %9 = alloca i32, align 4
  %10 = alloca ptr, align 8
  %11 = alloca i128, align 16
  %12 = alloca i64, align 8
  %13 = alloca i64, align 8
  %14 = alloca i64, align 8
  %15 = alloca i32, align 4
  store ptr %0, ptr %6, align 8, !tbaa !3
  store ptr %1, ptr %7, align 8, !tbaa !3
  store ptr %2, ptr %8, align 8, !tbaa !3
  store i32 %3, ptr %9, align 4, !tbaa !8
  store ptr %4, ptr %10, align 8, !tbaa !3
  call void @llvm.lifetime.start.p0(i64 16, ptr %11) #8
  call void @llvm.lifetime.start.p0(i64 8, ptr %12) #8
  call void @llvm.lifetime.start.p0(i64 8, ptr %13) #8
  store i64 -1, ptr %13, align 8, !tbaa !16
  call void @llvm.lifetime.start.p0(i64 8, ptr %14) #8
  store i64 -1, ptr %14, align 8, !tbaa !16
  call void @llvm.lifetime.start.p0(i64 4, ptr %15) #8
  store i128 0, ptr %11, align 16, !tbaa !47
  store i32 0, ptr %15, align 4, !tbaa !8
  br label %16

16:                                               ; preds = %72, %5
  %17 = load i32, ptr %15, align 4, !tbaa !8
  %18 = load i32, ptr %9, align 4, !tbaa !8
  %19 = icmp ult i32 %17, %18
  br i1 %19, label %20, label %75

20:                                               ; preds = %16
  %21 = load i32, ptr %15, align 4, !tbaa !8
  %22 = load ptr, ptr %6, align 8, !tbaa !3
  %23 = getelementptr inbounds nuw %struct.sp_int, ptr %22, i32 0, i32 0
  %24 = load i16, ptr %23, align 8, !tbaa !15
  %25 = zext i16 %24 to i32
  %26 = icmp eq i32 %21, %25
  %27 = zext i1 %26 to i32
  %28 = sext i32 %27 to i64
  %29 = load i64, ptr %13, align 8, !tbaa !16
  %30 = add i64 %29, %28
  store i64 %30, ptr %13, align 8, !tbaa !16
  %31 = load i32, ptr %15, align 4, !tbaa !8
  %32 = load ptr, ptr %7, align 8, !tbaa !3
  %33 = getelementptr inbounds nuw %struct.sp_int, ptr %32, i32 0, i32 0
  %34 = load i16, ptr %33, align 8, !tbaa !15
  %35 = zext i16 %34 to i32
  %36 = icmp eq i32 %31, %35
  %37 = zext i1 %36 to i32
  %38 = sext i32 %37 to i64
  %39 = load i64, ptr %14, align 8, !tbaa !16
  %40 = add i64 %39, %38
  store i64 %40, ptr %14, align 8, !tbaa !16
  %41 = load ptr, ptr %6, align 8, !tbaa !3
  %42 = getelementptr inbounds nuw %struct.sp_int, ptr %41, i32 0, i32 2
  %43 = load i32, ptr %15, align 4, !tbaa !8
  %44 = zext i32 %43 to i64
  %45 = getelementptr inbounds nuw [129 x i64], ptr %42, i64 0, i64 %44
  %46 = load i64, ptr %45, align 8, !tbaa !16
  %47 = load i64, ptr %13, align 8, !tbaa !16
  %48 = and i64 %46, %47
  %49 = zext i64 %48 to i128
  %50 = load i128, ptr %11, align 16, !tbaa !47
  %51 = add nsw i128 %50, %49
  store i128 %51, ptr %11, align 16, !tbaa !47
  %52 = load ptr, ptr %7, align 8, !tbaa !3
  %53 = getelementptr inbounds nuw %struct.sp_int, ptr %52, i32 0, i32 2
  %54 = load i32, ptr %15, align 4, !tbaa !8
  %55 = zext i32 %54 to i64
  %56 = getelementptr inbounds nuw [129 x i64], ptr %53, i64 0, i64 %55
  %57 = load i64, ptr %56, align 8, !tbaa !16
  %58 = load i64, ptr %14, align 8, !tbaa !16
  %59 = and i64 %57, %58
  %60 = zext i64 %59 to i128
  %61 = load i128, ptr %11, align 16, !tbaa !47
  %62 = sub nsw i128 %61, %60
  store i128 %62, ptr %11, align 16, !tbaa !47
  %63 = load i128, ptr %11, align 16, !tbaa !47
  %64 = trunc i128 %63 to i64
  %65 = load ptr, ptr %10, align 8, !tbaa !3
  %66 = getelementptr inbounds nuw %struct.sp_int, ptr %65, i32 0, i32 2
  %67 = load i32, ptr %15, align 4, !tbaa !8
  %68 = zext i32 %67 to i64
  %69 = getelementptr inbounds nuw [129 x i64], ptr %66, i64 0, i64 %68
  store i64 %64, ptr %69, align 8, !tbaa !16
  %70 = load i128, ptr %11, align 16, !tbaa !47
  %71 = ashr i128 %70, 64
  store i128 %71, ptr %11, align 16, !tbaa !47
  br label %72

72:                                               ; preds = %20
  %73 = load i32, ptr %15, align 4, !tbaa !8
  %74 = add i32 %73, 1
  store i32 %74, ptr %15, align 4, !tbaa !8
  br label %16, !llvm.loop !76

75:                                               ; preds = %16
  %76 = load i128, ptr %11, align 16, !tbaa !47
  %77 = icmp slt i128 %76, 0
  %78 = zext i1 %77 to i32
  %79 = sext i32 %78 to i64
  %80 = sub i64 0, %79
  store i64 %80, ptr %12, align 8, !tbaa !16
  store i128 0, ptr %11, align 16, !tbaa !47
  store i32 0, ptr %15, align 4, !tbaa !8
  br label %81

81:                                               ; preds = %118, %75
  %82 = load i32, ptr %15, align 4, !tbaa !8
  %83 = load ptr, ptr %8, align 8, !tbaa !3
  %84 = getelementptr inbounds nuw %struct.sp_int, ptr %83, i32 0, i32 0
  %85 = load i16, ptr %84, align 8, !tbaa !15
  %86 = zext i16 %85 to i32
  %87 = icmp ult i32 %82, %86
  br i1 %87, label %88, label %121

88:                                               ; preds = %81
  %89 = load ptr, ptr %10, align 8, !tbaa !3
  %90 = getelementptr inbounds nuw %struct.sp_int, ptr %89, i32 0, i32 2
  %91 = load i32, ptr %15, align 4, !tbaa !8
  %92 = zext i32 %91 to i64
  %93 = getelementptr inbounds nuw [129 x i64], ptr %90, i64 0, i64 %92
  %94 = load i64, ptr %93, align 8, !tbaa !16
  %95 = zext i64 %94 to i128
  %96 = load i128, ptr %11, align 16, !tbaa !47
  %97 = add nsw i128 %96, %95
  store i128 %97, ptr %11, align 16, !tbaa !47
  %98 = load ptr, ptr %8, align 8, !tbaa !3
  %99 = getelementptr inbounds nuw %struct.sp_int, ptr %98, i32 0, i32 2
  %100 = load i32, ptr %15, align 4, !tbaa !8
  %101 = zext i32 %100 to i64
  %102 = getelementptr inbounds nuw [129 x i64], ptr %99, i64 0, i64 %101
  %103 = load i64, ptr %102, align 8, !tbaa !16
  %104 = load i64, ptr %12, align 8, !tbaa !16
  %105 = and i64 %103, %104
  %106 = zext i64 %105 to i128
  %107 = load i128, ptr %11, align 16, !tbaa !47
  %108 = add nsw i128 %107, %106
  store i128 %108, ptr %11, align 16, !tbaa !47
  %109 = load i128, ptr %11, align 16, !tbaa !47
  %110 = trunc i128 %109 to i64
  %111 = load ptr, ptr %10, align 8, !tbaa !3
  %112 = getelementptr inbounds nuw %struct.sp_int, ptr %111, i32 0, i32 2
  %113 = load i32, ptr %15, align 4, !tbaa !8
  %114 = zext i32 %113 to i64
  %115 = getelementptr inbounds nuw [129 x i64], ptr %112, i64 0, i64 %114
  store i64 %110, ptr %115, align 8, !tbaa !16
  %116 = load i128, ptr %11, align 16, !tbaa !47
  %117 = ashr i128 %116, 64
  store i128 %117, ptr %11, align 16, !tbaa !47
  br label %118

118:                                              ; preds = %88
  %119 = load i32, ptr %15, align 4, !tbaa !8
  %120 = add i32 %119, 1
  store i32 %120, ptr %15, align 4, !tbaa !8
  br label %81, !llvm.loop !77

121:                                              ; preds = %81
  %122 = load i32, ptr %15, align 4, !tbaa !8
  %123 = trunc i32 %122 to i16
  %124 = load ptr, ptr %10, align 8, !tbaa !3
  %125 = getelementptr inbounds nuw %struct.sp_int, ptr %124, i32 0, i32 0
  store i16 %123, ptr %125, align 8, !tbaa !15
  %126 = load ptr, ptr %10, align 8, !tbaa !3
  call void @sp_clamp_ct(ptr noundef %126)
  call void @llvm.lifetime.end.p0(i64 4, ptr %15) #8
  call void @llvm.lifetime.end.p0(i64 8, ptr %14) #8
  call void @llvm.lifetime.end.p0(i64 8, ptr %13) #8
  call void @llvm.lifetime.end.p0(i64 8, ptr %12) #8
  call void @llvm.lifetime.end.p0(i64 16, ptr %11) #8
  ret void
}

; Function Attrs: nounwind uwtable
define i32 @sp_submod_ct(ptr noundef %0, ptr noundef %1, ptr noundef %2, ptr noundef %3) #0 {
  %5 = alloca ptr, align 8
  %6 = alloca ptr, align 8
  %7 = alloca ptr, align 8
  %8 = alloca ptr, align 8
  %9 = alloca i32, align 4
  store ptr %0, ptr %5, align 8, !tbaa !3
  store ptr %1, ptr %6, align 8, !tbaa !3
  store ptr %2, ptr %7, align 8, !tbaa !3
  store ptr %3, ptr %8, align 8, !tbaa !3
  call void @llvm.lifetime.start.p0(i64 4, ptr %9) #8
  store i32 0, ptr %9, align 4, !tbaa !8
  %10 = load ptr, ptr %7, align 8, !tbaa !3
  %11 = getelementptr inbounds nuw %struct.sp_int, ptr %10, i32 0, i32 0
  %12 = load i16, ptr %11, align 8, !tbaa !15
  %13 = zext i16 %12 to i32
  %14 = load ptr, ptr %8, align 8, !tbaa !3
  %15 = getelementptr inbounds nuw %struct.sp_int, ptr %14, i32 0, i32 1
  %16 = load i16, ptr %15, align 2, !tbaa !12
  %17 = zext i16 %16 to i32
  %18 = icmp sgt i32 %13, %17
  br i1 %18, label %19, label %20

19:                                               ; preds = %4
  store i32 -98, ptr %9, align 4, !tbaa !8
  br label %20

20:                                               ; preds = %19, %4
  %21 = load i32, ptr %9, align 4, !tbaa !8
  %22 = icmp eq i32 %21, 0
  br i1 %22, label %23, label %28

23:                                               ; preds = %20
  %24 = load ptr, ptr %8, align 8, !tbaa !3
  %25 = load ptr, ptr %7, align 8, !tbaa !3
  %26 = icmp eq ptr %24, %25
  br i1 %26, label %27, label %28

27:                                               ; preds = %23
  store i32 -98, ptr %9, align 4, !tbaa !8
  br label %28

28:                                               ; preds = %27, %23, %20
  %29 = load i32, ptr %9, align 4, !tbaa !8
  %30 = icmp eq i32 %29, 0
  br i1 %30, label %31, label %40

31:                                               ; preds = %28
  %32 = load ptr, ptr %5, align 8, !tbaa !3
  %33 = load ptr, ptr %6, align 8, !tbaa !3
  %34 = load ptr, ptr %7, align 8, !tbaa !3
  %35 = load ptr, ptr %7, align 8, !tbaa !3
  %36 = getelementptr inbounds nuw %struct.sp_int, ptr %35, i32 0, i32 0
  %37 = load i16, ptr %36, align 8, !tbaa !15
  %38 = zext i16 %37 to i32
  %39 = load ptr, ptr %8, align 8, !tbaa !3
  call void @_sp_submod_ct(ptr noundef %32, ptr noundef %33, ptr noundef %34, i32 noundef %38, ptr noundef %39)
  br label %40

40:                                               ; preds = %31, %28
  %41 = load i32, ptr %9, align 4, !tbaa !8
  call void @llvm.lifetime.end.p0(i64 4, ptr %9) #8
  ret i32 %41
}