; Function Attrs: nofree norecurse nosync nounwind memory(argmem: readwrite) uwtable
define range(i32 -98, 1) i32 @sp_submod_ct(ptr noundef readonly captures(none) %0, ptr noundef readonly captures(none) %1, ptr noundef readonly captures(address) %2, ptr noundef captures(address) %3) local_unnamed_addr #8 {
  %5 = load i16, ptr %2, align 8, !tbaa !12
  %6 = getelementptr inbounds nuw i8, ptr %3, i64 2
  %7 = load i16, ptr %6, align 2, !tbaa !10
  %.not = icmp ule i16 %5, %7
  %8 = icmp ne ptr %3, %2
  %.not13 = and i1 %8, %.not
  br i1 %.not13, label %9, label %60

9:                                                ; preds = %4
  %.not.i = icmp eq i16 %5, 0
  br i1 %.not.i, label %_sp_submod_ct.exit, label %.lr.ph.i

.lr.ph.i:                                         ; preds = %9
  %10 = load i16, ptr %0, align 8, !tbaa !12
  %11 = load i16, ptr %1, align 8, !tbaa !12
  %12 = getelementptr inbounds nuw i8, ptr %0, i64 8
  %13 = getelementptr inbounds nuw i8, ptr %1, i64 8
  %14 = getelementptr inbounds nuw i8, ptr %3, i64 8
  %15 = zext i16 %10 to i64
  %16 = zext i16 %11 to i64
  %wide.trip.count.i = zext i16 %5 to i64
  br label %17

17:                                               ; preds = %17, %.lr.ph.i
  %indvars.iv.i = phi i64 [ 0, %.lr.ph.i ], [ %indvars.iv.next.i, %17 ]
  %.03845.i = phi i64 [ -1, %.lr.ph.i ], [ %23, %17 ]
  %.03944.i = phi i64 [ -1, %.lr.ph.i ], [ %20, %17 ]
  %.04043.i = phi i128 [ 0, %.lr.ph.i ], [ %36, %17 ]
  %18 = icmp eq i64 %indvars.iv.i, %15
  %19 = zext i1 %18 to i64
  %20 = add i64 %.03944.i, %19
  %21 = icmp eq i64 %indvars.iv.i, %16
  %22 = zext i1 %21 to i64
  %23 = add i64 %.03845.i, %22
  %24 = getelementptr inbounds nuw [129 x i64], ptr %12, i64 0, i64 %indvars.iv.i
  %25 = load i64, ptr %24, align 8, !tbaa !8
  %26 = and i64 %25, %20
  %27 = zext i64 %26 to i128
  %28 = add nsw i128 %.04043.i, %27
  %29 = getelementptr inbounds nuw [129 x i64], ptr %13, i64 0, i64 %indvars.iv.i
  %30 = load i64, ptr %29, align 8, !tbaa !8
  %31 = and i64 %30, %23
  %32 = zext i64 %31 to i128
  %33 = sub nsw i128 %28, %32
  %34 = trunc i128 %33 to i64
  %35 = getelementptr inbounds nuw [129 x i64], ptr %14, i64 0, i64 %indvars.iv.i
  store i64 %34, ptr %35, align 8, !tbaa !8
  %36 = ashr i128 %33, 64
  %indvars.iv.next.i = add nuw nsw i64 %indvars.iv.i, 1
  %exitcond.not.i = icmp eq i64 %indvars.iv.next.i, %wide.trip.count.i
  br i1 %exitcond.not.i, label %._crit_edge.i, label %17, !llvm.loop !55

._crit_edge.i:                                    ; preds = %17
  %37 = ashr i128 %33, 127
  %extract.t.i = trunc nsw i128 %37 to i64
  %38 = getelementptr inbounds nuw i8, ptr %3, i64 8
  %39 = getelementptr inbounds nuw i8, ptr %2, i64 8
  %wide.trip.count60.i = zext i16 %5 to i64
  br label %40

40:                                               ; preds = %40, %._crit_edge.i
  %indvars.iv57.i = phi i64 [ 0, %._crit_edge.i ], [ %indvars.iv.next58.i, %40 ]
  %.14147.i = phi i128 [ 0, %._crit_edge.i ], [ %51, %40 ]
  %41 = getelementptr inbounds nuw [129 x i64], ptr %38, i64 0, i64 %indvars.iv57.i
  %42 = load i64, ptr %41, align 8, !tbaa !8
  %43 = zext i64 %42 to i128
  %44 = add nuw nsw i128 %.14147.i, %43
  %45 = getelementptr inbounds nuw [129 x i64], ptr %39, i64 0, i64 %indvars.iv57.i
  %46 = load i64, ptr %45, align 8, !tbaa !8
  %47 = and i64 %46, %extract.t.i
  %48 = zext i64 %47 to i128
  %49 = add nuw nsw i128 %44, %48
  %50 = trunc i128 %49 to i64
  store i64 %50, ptr %41, align 8, !tbaa !8
  %51 = lshr i128 %49, 64
  %indvars.iv.next58.i = add nuw nsw i64 %indvars.iv57.i, 1
  %exitcond61.not.i = icmp eq i64 %indvars.iv.next58.i, %wide.trip.count60.i
  br i1 %exitcond61.not.i, label %._crit_edge51.i, label %40, !llvm.loop !56

._crit_edge51.i:                                  ; preds = %40, %._crit_edge51.i
  %indvars.iv.i.i = phi i64 [ %indvars.iv.next.i.i, %._crit_edge51.i ], [ %wide.trip.count60.i, %40 ]
  %.016.i.i = phi i16 [ %58, %._crit_edge51.i ], [ -1, %40 ]
  %.01215.i.i = phi i16 [ %57, %._crit_edge51.i ], [ %5, %40 ]
  %indvars.iv.next.i.i = add nsw i64 %indvars.iv.i.i, -1
  %52 = getelementptr inbounds nuw [129 x i64], ptr %38, i64 0, i64 %indvars.iv.next.i.i
  %53 = load i64, ptr %52, align 8, !tbaa !8
  %54 = icmp eq i64 %53, 0
  %55 = and i16 %.016.i.i, 1
  %56 = select i1 %54, i16 %55, i16 0
  %57 = sub i16 %.01215.i.i, %56
  %58 = select i1 %54, i16 %.016.i.i, i16 0
  %59 = icmp samesign ugt i64 %indvars.iv.i.i, 1
  br i1 %59, label %._crit_edge51.i, label %_sp_submod_ct.exit, !llvm.loop !54

_sp_submod_ct.exit:                               ; preds = %._crit_edge51.i, %9
  %.012.lcssa.i.i = phi i16 [ 0, %9 ], [ %57, %._crit_edge51.i ]
  store i16 %.012.lcssa.i.i, ptr %3, align 8, !tbaa !12
  br label %60

60:                                               ; preds = %_sp_submod_ct.exit, %4
  %.1 = phi i32 [ 0, %_sp_submod_ct.exit ], [ -98, %4 ]
  ret i32 %.1
}